(dp0
S'isShellCmd'
p1
I00
sS'cmd'
p2
(lp3
S'/home/duan/Desktop/bioinfomatic/manta-1.6.0.centos6_x86_64/libexec/SummarizeSVLoci'
p4
aS'--global'
p5
aS'--graph-file'
p6
aS'/home/duan/Desktop/NGS_results/manta/0.7/workspace/svLocusGraph.bin'
p7
aS'--output-file'
p8
aS'/home/duan/Desktop/NGS_results/manta/0.7/results/stats/svLocusGraphStats.tsv'
p9
asS'errFile'
p10
S'/home/duan/Desktop/NGS_results/manta/0.7/workspace/pyflow.data/logs/pyflow_tasks_stderr_log.txt'
p11
sS'outFile'
p12
S'/home/duan/Desktop/NGS_results/manta/0.7/workspace/pyflow.data/logs/pyflow_tasks_stdout_log.txt'
p13
sS'env'
p14
NsS'nCores'
p15
I1
sS'cwd'
p16
S''
p17
s.