(dp0
S'isShellCmd'
p1
I01
sS'cmd'
p2
S'"/home/duan/miniconda3/envs/python2.7/bin/python" "/home/duan/Desktop/bioinfomatic/manta-1.6.0.centos6_x86_64/libexec/sortVcf.py" -f "/home/duan/Desktop/NGS_results/manta/0.7/workspace/svHyGen/list.sortCandidateSV.txt" -a | "/home/duan/Desktop/bioinfomatic/manta-1.6.0.centos6_x86_64/libexec/bgzip" -c > "/home/duan/Desktop/NGS_results/manta/0.7/results/variants/candidateSV.vcf.gz"'
p3
sS'errFile'
p4
S'/home/duan/Desktop/NGS_results/manta/0.7/workspace/pyflow.data/logs/pyflow_tasks_stderr_log.txt'
p5
sS'outFile'
p6
S'/home/duan/Desktop/NGS_results/manta/0.7/workspace/pyflow.data/logs/pyflow_tasks_stdout_log.txt'
p7
sS'env'
p8
NsS'nCores'
p9
I1
sS'cwd'
p10
S''
p11
s.