(dp0
S'isShellCmd'
p1
I00
sS'cmd'
p2
(lp3
S'/home/duan/Desktop/bioinfomatic/manta-1.6.0.centos6_x86_64/libexec/GetAlignmentStats'
p4
aS'--ref'
p5
aS'/home/duan/Desktop/bioinfomatic/fa/chr20.fa'
p6
aS'--output-file'
p7
aS'/home/duan/Desktop/NGS_results/manta/0.7/workspace/alignmentStats.xml.tmpdir/alignmentStats.xml.000.xml'
p8
aS'--align-file'
p9
aS'/home/duan/Desktop/bioinfomatic/NGS/normal.sim.srt.bam'
p10
asS'errFile'
p11
S'/home/duan/Desktop/NGS_results/manta/0.7/workspace/pyflow.data/logs/pyflow_tasks_stderr_log.txt'
p12
sS'outFile'
p13
S'/home/duan/Desktop/NGS_results/manta/0.7/workspace/pyflow.data/logs/pyflow_tasks_stdout_log.txt'
p14
sS'env'
p15
NsS'nCores'
p16
I1
sS'cwd'
p17
S''
p18
s.