(dp0
S'isShellCmd'
p1
I01
sS'cmd'
p2
S'"/home/duan/miniconda3/envs/python2.7/bin/python" "/home/duan/Desktop/bioinfomatic/manta-1.6.0.centos6_x86_64/libexec/vcfCmdlineSwapper.py" "configManta.py --normalBam /home/duan/Desktop/bioinfomatic/NGS/normal.sim.srt.bam --tumorBam /home/duan/Desktop/bioinfomatic/NGS/0.5sim.srt.bam --referenceFasta /home/duan/Desktop/bioinfomatic/fa/chr20.fa --runDir /home/duan/Desktop/NGS_results/manta/0.5" < "/home/duan/Desktop/NGS_results/manta/0.5/workspace/svHyGen/somaticSV.0000.vcf" > "/home/duan/Desktop/NGS_results/manta/0.5/workspace/svHyGen/somaticSV.0000.vcf.reheader.tmp" && mv "/home/duan/Desktop/NGS_results/manta/0.5/workspace/svHyGen/somaticSV.0000.vcf.reheader.tmp" "/home/duan/Desktop/NGS_results/manta/0.5/workspace/svHyGen/somaticSV.0000.vcf"'
p3
sS'errFile'
p4
S'/home/duan/Desktop/NGS_results/manta/0.5/workspace/pyflow.data/logs/pyflow_tasks_stderr_log.txt'
p5
sS'outFile'
p6
S'/home/duan/Desktop/NGS_results/manta/0.5/workspace/pyflow.data/logs/pyflow_tasks_stdout_log.txt'
p7
sS'env'
p8
NsS'nCores'
p9
I1
sS'cwd'
p10
S''
p11
s.