(dp0
S'isShellCmd'
p1
I00
sS'cmd'
p2
(lp3
S'/home/duan/Desktop/bioinfomatic/manta-1.6.0.centos6_x86_64/libexec/GenerateSVCandidates'
p4
aS'--threads'
p5
aS'2'
p6
aS'--align-stats'
p7
aS'/home/duan/Desktop/NGS_results/manta/0.2/workspace/alignmentStats.xml'
p8
aS'--graph-file'
p9
aS'/home/duan/Desktop/NGS_results/manta/0.2/workspace/svLocusGraph.bin'
p10
aS'--bin-index'
p11
aS'0'
p12
aS'--bin-count'
p13
aS'1'
p14
aS'--max-edge-count'
p15
aS'10'
p16
aS'--min-candidate-sv-size'
p17
aS'8'
p18
aS'--min-candidate-spanning-count'
p19
aS'3'
p20
aS'--min-scored-sv-size'
p21
aS'50'
p22
aS'--ref'
p23
aS'/home/duan/Desktop/bioinfomatic/fa/chr20.fa'
p24
aS'--candidate-output-file'
p25
aS'/home/duan/Desktop/NGS_results/manta/0.2/workspace/svHyGen/candidateSV.0000.vcf'
p26
aS'--diploid-output-file'
p27
aS'/home/duan/Desktop/NGS_results/manta/0.2/workspace/svHyGen/diploidSV.0000.vcf'
p28
aS'--min-qual-score'
p29
aS'10'
p30
aS'--min-pass-qual-score'
p31
aS'20'
p32
aS'--min-pass-gt-score'
p33
aS'15'
p34
aS'--somatic-output-file'
p35
aS'/home/duan/Desktop/NGS_results/manta/0.2/workspace/svHyGen/somaticSV.0000.vcf'
p36
aS'--min-somatic-score'
p37
aS'10'
p38
aS'--min-pass-somatic-score'
p39
aS'30'
p40
aS'--chrom-depth'
p41
aS'/home/duan/Desktop/NGS_results/manta/0.2/workspace/chromDepth.txt'
p42
aS'--edge-runtime-log'
p43
aS'/home/duan/Desktop/NGS_results/manta/0.2/workspace/svHyGen/edgeRuntimeLog.0000.txt'
p44
aS'--edge-stats-log'
p45
aS'/home/duan/Desktop/NGS_results/manta/0.2/results/stats/svCandidateGenerationStats.xml'
p46
aS'--edge-stats-report'
p47
aS'/home/duan/Desktop/NGS_results/manta/0.2/results/stats/svCandidateGenerationStats.tsv'
p48
aS'--align-file'
p49
aS'/home/duan/Desktop/bioinfomatic/NGS/normal.sim.srt.bam'
p50
aS'--tumor-align-file'
p51
aS'/home/duan/Desktop/bioinfomatic/NGS/0.2sim.srt.bam'
p52
asS'errFile'
p53
S'/home/duan/Desktop/NGS_results/manta/0.2/workspace/pyflow.data/logs/pyflow_tasks_stderr_log.txt'
p54
sS'outFile'
p55
S'/home/duan/Desktop/NGS_results/manta/0.2/workspace/pyflow.data/logs/pyflow_tasks_stdout_log.txt'
p56
sS'env'
p57
NsS'nCores'
p58
I2
sS'cwd'
p59
S''
p60
s.