(dp0
S'isShellCmd'
p1
I00
sS'cmd'
p2
(lp3
S'/home/duan/Desktop/bioinfomatic/manta-1.6.0.centos6_x86_64/libexec/EstimateSVLoci'
p4
aS'--output-file'
p5
aS'/home/duan/Desktop/NGS_results/manta/0.5/workspace/svLocusGraph.bin.tmpdir/svLocusGraph.chromId_000_chr20_0005.bin'
p6
aS'--align-stats'
p7
aS'/home/duan/Desktop/NGS_results/manta/0.5/workspace/alignmentStats.xml'
p8
aS'--region'
p9
aS'chr20:53703474-64444167'
p10
aS'--min-candidate-sv-size'
p11
aS'8'
p12
aS'--min-edge-observations'
p13
aS'3'
p14
aS'--ref'
p15
aS'/home/duan/Desktop/bioinfomatic/fa/chr20.fa'
p16
aS'--align-file'
p17
aS'/home/duan/Desktop/bioinfomatic/NGS/normal.sim.srt.bam'
p18
aS'--tumor-align-file'
p19
aS'/home/duan/Desktop/bioinfomatic/NGS/0.5sim.srt.bam'
p20
aS'--chrom-depth'
p21
aS'/home/duan/Desktop/NGS_results/manta/0.5/workspace/chromDepth.txt'
p22
asS'errFile'
p23
S'/home/duan/Desktop/NGS_results/manta/0.5/workspace/pyflow.data/logs/pyflow_tasks_stderr_log.txt'
p24
sS'outFile'
p25
S'/home/duan/Desktop/NGS_results/manta/0.5/workspace/pyflow.data/logs/pyflow_tasks_stdout_log.txt'
p26
sS'env'
p27
NsS'nCores'
p28
I1
sS'cwd'
p29
S''
p30
s.