(dp0
S'isShellCmd'
p1
I00
sS'cmd'
p2
(lp3
S'/home/duan/miniconda3/envs/python2.7/bin/python'
p4
aS'/home/duan/Desktop/bioinfomatic/manta-1.6.0.centos6_x86_64/libexec/sortEdgeLogs.py'
p5
aS'-f'
p6
aS'/home/duan/Desktop/NGS_results/manta/0.7/workspace/svHyGen/list.edgeRuntimeLog.txt'
p7
aS'-o'
p8
aS'/home/duan/Desktop/NGS_results/manta/0.7/workspace/edgeRuntimeLog.txt'
p9
asS'errFile'
p10
S'/home/duan/Desktop/NGS_results/manta/0.7/workspace/pyflow.data/logs/pyflow_tasks_stderr_log.txt'
p11
sS'outFile'
p12
S'/home/duan/Desktop/NGS_results/manta/0.7/workspace/pyflow.data/logs/pyflow_tasks_stdout_log.txt'
p13
sS'env'
p14
NsS'nCores'
p15
I1
sS'cwd'
p16
S''
p17
s.