(dp0
S'manta'
p1
(dp2
S'mantaMergeStatsBin'
p3
S'/home/duan/Desktop/bioinfomatic/manta-1.6.0.centos6_x86_64/libexec/MergeAlignmentStats'
p4
sS'isExome'
p5
I00
sS'enableEvidenceSignalFilter'
p6
S'1'
p7
sS'existingAlignStatsFile'
p8
NsS'referenceFasta'
p9
S'/home/duan/Desktop/bioinfomatic/fa/chr20.fa'
p10
sS'hyGenSGEMemMb'
p11
I4096
sS'minPassSomaticScore'
p12
S'30'
p13
sS'tumorBamList'
p14
(lp15
S'/home/duan/Desktop/bioinfomatic/NGS/0.7sim.srt.bam'
p16
asS'workflowScriptName'
p17
S'runWorkflow.py'
p18
sS'normalBamList'
p19
(lp20
S'/home/duan/Desktop/bioinfomatic/NGS/normal.sim.srt.bam'
p21
asS'estimateMemMb'
p22
F1536.0
sS'mantaSortVcf'
p23
S'/home/duan/Desktop/bioinfomatic/manta-1.6.0.centos6_x86_64/libexec/sortVcf.py'
p24
sS'scanSizeMb'
p25
I12
sS'libexecDir'
p26
S'/home/duan/Desktop/bioinfomatic/manta-1.6.0.centos6_x86_64/libexec'
p27
sS'isRetainTempFiles'
p28
I00
sS'isRNA'
p29
I00
sS'mantaSortEdgeLogs'
p30
S'/home/duan/Desktop/bioinfomatic/manta-1.6.0.centos6_x86_64/libexec/sortEdgeLogs.py'
p31
sS'tabixBin'
p32
S'/home/duan/Desktop/bioinfomatic/manta-1.6.0.centos6_x86_64/libexec/tabix'
p33
sS'rnaMinCandidateVariantSize'
p34
S'1000'
p35
sS'callRegionsBed'
p36
NsS'mantaPloidyFilter'
p37
S'/home/duan/Desktop/bioinfomatic/manta-1.6.0.centos6_x86_64/libexec/ploidyFilter.py'
p38
sS'mantaSortBam'
p39
S'/home/duan/Desktop/bioinfomatic/manta-1.6.0.centos6_x86_64/libexec/sortBam.py'
p40
sS'samtoolsBin'
p41
S'/home/duan/Desktop/bioinfomatic/manta-1.6.0.centos6_x86_64/libexec/samtools'
p42
sS'useExistingChromDepths'
p43
I00
sS'vcfCmdlineSwapper'
p44
S'/home/duan/Desktop/bioinfomatic/manta-1.6.0.centos6_x86_64/libexec/vcfCmdlineSwapper.py'
p45
sS'mantaExtraSmallVcf'
p46
S'/home/duan/Desktop/bioinfomatic/manta-1.6.0.centos6_x86_64/libexec/extractSmallIndelCandidates.py'
p47
sS'mantaMergeBam'
p48
S'/home/duan/Desktop/bioinfomatic/manta-1.6.0.centos6_x86_64/libexec/mergeBam.py'
p49
sS'mantaStatsSummaryBin'
p50
S'/home/duan/Desktop/bioinfomatic/manta-1.6.0.centos6_x86_64/libexec/SummarizeAlignmentStats'
p51
sS'minScoredVariantSize'
p52
S'50'
p53
sS'mantaGraphStatsBin'
p54
S'/home/duan/Desktop/bioinfomatic/manta-1.6.0.centos6_x86_64/libexec/SummarizeSVLoci'
p55
sS'mantaGraphCheckBin'
p56
S'/home/duan/Desktop/bioinfomatic/manta-1.6.0.centos6_x86_64/libexec/CheckSVLoci'
p57
sS'minSomaticScore'
p58
S'10'
p59
sS'minCandidateVariantSize'
p60
S'8'
p61
sS'mantaGraphMergeBin'
p62
S'/home/duan/Desktop/bioinfomatic/manta-1.6.0.centos6_x86_64/libexec/MergeSVLoci'
p63
sS'genomeRegionList'
p64
NsS'getChromDepthBin'
p65
S'/home/duan/Desktop/bioinfomatic/manta-1.6.0.centos6_x86_64/libexec/GetChromDepth'
p66
sS'minPassDiploidGTScore'
p67
S'15'
p68
sS'graphNodeMaxEdgeCount'
p69
S'10'
p70
sS'enableRemoteReadRetrievalForInsertionsInCancerCallingModes'
p71
S'0'
p72
sS'mergeChromDepth'
p73
S'/home/duan/Desktop/bioinfomatic/manta-1.6.0.centos6_x86_64/libexec/mergeChromDepth.py'
p74
sS'isUnstrandedRNA'
p75
I00
sS'catScript'
p76
S'/home/duan/Desktop/bioinfomatic/manta-1.6.0.centos6_x86_64/libexec/cat.py'
p77
sS'runDir'
p78
S'/home/duan/Desktop/NGS_results/manta/0.7'
p79
sS'hyGenLocalMemMb'
p80
F1536.0
sS'enableRemoteReadRetrievalForInsertionsInGermlineCallingModes'
p81
g7
sS'mantaGraphBin'
p82
S'/home/duan/Desktop/bioinfomatic/manta-1.6.0.centos6_x86_64/libexec/EstimateSVLoci'
p83
sS'regionStrList'
p84
NsS'mergeMemMb'
p85
I4096
sS'isGenerateSupportBam'
p86
I00
sS'minPassDiploidVariantScore'
p87
S'20'
p88
sS'callMemMbOverride'
p89
NsS'userConfigPath'
p90
NsS'minEdgeObservations'
p91
S'3'
p92
sS'minDiploidVariantScore'
p93
S'10'
p94
sS'minCandidateSpanningCount'
p95
g92
sS'mantaStatsBin'
p96
S'/home/duan/Desktop/bioinfomatic/manta-1.6.0.centos6_x86_64/libexec/GetAlignmentStats'
p97
sS'mantaHyGenBin'
p98
S'/home/duan/Desktop/bioinfomatic/manta-1.6.0.centos6_x86_64/libexec/GenerateSVCandidates'
p99
sS'htsfileBin'
p100
S'/home/duan/Desktop/bioinfomatic/manta-1.6.0.centos6_x86_64/libexec/htsfile'
p101
sS'useOverlapPairEvidence'
p102
g72
sS'bgzipBin'
p103
S'/home/duan/Desktop/bioinfomatic/manta-1.6.0.centos6_x86_64/libexec/bgzip'
p104
sS'configCommandLine'
p105
(lp106
S'configManta.py'
p107
aS'--normalBam'
p108
aS'/home/duan/Desktop/bioinfomatic/NGS/normal.sim.srt.bam'
p109
aS'--tumorBam'
p110
aS'/home/duan/Desktop/bioinfomatic/NGS/0.7sim.srt.bam'
p111
aS'--referenceFasta'
p112
aS'/home/duan/Desktop/bioinfomatic/fa/chr20.fa'
p113
aS'--runDir'
p114
aS'/home/duan/Desktop/NGS_results/manta/0.7'
p115
asS'isOutputContig'
p116
I00
ss.