(dp0
S'isShellCmd'
p1
I00
sS'cmd'
p2
(lp3
S'/home/duan/Desktop/bioinfomatic/manta-1.6.0.centos6_x86_64/libexec/cat.py'
p4
aS'--output'
p5
aS'/home/duan/Desktop/NGS_results/manta/0.2/workspace/chromDepth.txt.tmpdir/chromDepth.txt.000.txt'
p6
aS'/home/duan/Desktop/NGS_results/manta/0.2/workspace/chromDepth.txt.tmpdir/chromDepth.txt.000.txt.tmpdir/chromDepth.txt.000.txt_000_chr20'
p7
asS'errFile'
p8
S'/home/duan/Desktop/NGS_results/manta/0.2/workspace/pyflow.data/logs/pyflow_tasks_stderr_log.txt'
p9
sS'outFile'
p10
S'/home/duan/Desktop/NGS_results/manta/0.2/workspace/pyflow.data/logs/pyflow_tasks_stdout_log.txt'
p11
sS'env'
p12
NsS'nCores'
p13
I1
sS'cwd'
p14
S''
p15
s.