(dp0
S'isShellCmd'
p1
I00
sS'cmd'
p2
(lp3
S'/home/duan/Desktop/bioinfomatic/manta-1.6.0.centos6_x86_64/libexec/GetChromDepth'
p4
aS'--ref'
p5
aS'/home/duan/Desktop/bioinfomatic/fa/chr20.fa'
p6
aS'--align-file'
p7
aS'/home/duan/Desktop/bioinfomatic/NGS/normal.sim.srt.bam'
p8
aS'--output'
p9
aS'/home/duan/Desktop/NGS_results/manta/0.5/workspace/chromDepth.txt.tmpdir/chromDepth.txt.000.txt.tmpdir/chromDepth.txt.000.txt_000_chr20'
p10
aS'--chrom'
p11
aS'chr20'
p12
asS'errFile'
p13
S'/home/duan/Desktop/NGS_results/manta/0.5/workspace/pyflow.data/logs/pyflow_tasks_stderr_log.txt'
p14
sS'outFile'
p15
S'/home/duan/Desktop/NGS_results/manta/0.5/workspace/pyflow.data/logs/pyflow_tasks_stdout_log.txt'
p16
sS'env'
p17
NsS'nCores'
p18
I1
sS'cwd'
p19
S''
p20
s.